target datalayout = "e-m:e-p270:32:32-p271:32:32-p272:64:64-i64:64-i128:128-f80:128-n8:16:32:64-S128"
target triple = "x86_64-pc-linux-gnu"

; Function Attrs: nounwind uwtable
define void @Gia_ManDualXorN(ptr noundef %0, ptr noundef %1, i32 noundef %2, ptr noundef %3) #0 {
  %5 = alloca ptr, align 8
  %6 = alloca ptr, align 8
  %7 = alloca i32, align 4
  %8 = alloca ptr, align 8
  %9 = alloca i32, align 4
  store ptr %0, ptr %5, align 8
  store ptr %1, ptr %6, align 8
  store i32 %2, ptr %7, align 4
  store ptr %3, ptr %8, align 8
  %10 = load ptr, ptr %8, align 8
  %11 = getelementptr inbounds i32, ptr %10, i64 0
  store i32 0, ptr %11, align 4
  %12 = load ptr, ptr %8, align 8
  %13 = getelementptr inbounds i32, ptr %12, i64 1
  store i32 0, ptr %13, align 4
  store i32 0, ptr %9, align 4
  br label %14

14:                                               ; preds = %46, %4
  %15 = load i32, ptr %9, align 4
  %16 = load i32, ptr %7, align 4
  %17 = icmp slt i32 %15, %16
  br i1 %17, label %18, label %49

18:                                               ; preds = %14
  %19 = load ptr, ptr %5, align 8
  %20 = load ptr, ptr %8, align 8
  %21 = getelementptr inbounds i32, ptr %20, i64 0
  %22 = load i32, ptr %21, align 4
  %23 = load ptr, ptr %6, align 8
  %24 = load i32, ptr %9, align 4
  %25 = mul nsw i32 2, %24
  %26 = sext i32 %25 to i64
  %27 = getelementptr inbounds i32, ptr %23, i64 %26
  %28 = load i32, ptr %27, align 4
  %29 = call i32 @Gia_ManHashXor(ptr noundef %19, i32 noundef %22, i32 noundef %28)
  %30 = load ptr, ptr %8, align 8
  %31 = getelementptr inbounds i32, ptr %30, i64 0
  store i32 %29, ptr %31, align 4
  %32 = load ptr, ptr %5, align 8
  %33 = load ptr, ptr %8, align 8
  %34 = getelementptr inbounds i32, ptr %33, i64 1
  %35 = load i32, ptr %34, align 4
  %36 = load ptr, ptr %6, align 8
  %37 = load i32, ptr %9, align 4
  %38 = mul nsw i32 2, %37
  %39 = add nsw i32 %38, 1
  %40 = sext i32 %39 to i64
  %41 = getelementptr inbounds i32, ptr %36, i64 %40
  %42 = load i32, ptr %41, align 4
  %43 = call i32 @Gia_ManHashOr(ptr noundef %32, i32 noundef %35, i32 noundef %42)
  %44 = load ptr, ptr %8, align 8
  %45 = getelementptr inbounds i32, ptr %44, i64 1
  store i32 %43, ptr %45, align 4
  br label %46

46:                                               ; preds = %18
  %47 = load i32, ptr %9, align 4
  %48 = add nsw i32 %47, 1
  store i32 %48, ptr %9, align 4
  br label %14, !llvm.loop !13

49:                                               ; preds = %14
  ret void
}