; Function Attrs: nounwind uwtable
define void @Gia_ManDualXorN(ptr noundef %0, ptr noundef readonly captures(none) %1, i32 noundef %2, ptr noundef captures(none) initializes((0, 8)) %3) local_unnamed_addr #0 {
  store i32 0, ptr %3, align 4
  %5 = getelementptr inbounds nuw i8, ptr %3, i64 4
  store i32 0, ptr %5, align 4
  %6 = icmp sgt i32 %2, 0
  br i1 %6, label %.lr.ph.preheader, label %._crit_edge

.lr.ph.preheader:                                 ; preds = %4
  %wide.trip.count = zext nneg i32 %2 to i64
  br label %.lr.ph

.lr.ph:                                           ; preds = %.lr.ph.preheader, %.lr.ph
  %indvars.iv = phi i64 [ 0, %.lr.ph.preheader ], [ %indvars.iv.next, %.lr.ph ]
  %7 = load i32, ptr %3, align 4
  %8 = shl nuw nsw i64 %indvars.iv, 1
  %9 = getelementptr inbounds nuw i32, ptr %1, i64 %8
  %10 = load i32, ptr %9, align 4
  %11 = tail call i32 @Gia_ManHashXor(ptr noundef %0, i32 noundef %7, i32 noundef %10) #18
  store i32 %11, ptr %3, align 4
  %12 = load i32, ptr %5, align 4
  %13 = or disjoint i64 %8, 1
  %14 = getelementptr inbounds nuw i32, ptr %1, i64 %13
  %15 = load i32, ptr %14, align 4
  %16 = tail call i32 @Gia_ManHashOr(ptr noundef %0, i32 noundef %12, i32 noundef %15) #18
  store i32 %16, ptr %5, align 4
  %indvars.iv.next = add nuw nsw i64 %indvars.iv, 1
  %exitcond.not = icmp eq i64 %indvars.iv.next, %wide.trip.count
  br i1 %exitcond.not, label %._crit_edge, label %.lr.ph, !llvm.loop !12

._crit_edge:                                      ; preds = %.lr.ph, %4
  ret void
}